target datalayout = "e-m:e-p270:32:32-p271:32:32-p272:64:64-i64:64-i128:128-f80:128-n8:16:32:64-S128"
target triple = "x86_64-pc-linux-gnu"

%"class.std::__cxx11::basic_string" = type { %"struct.std::__cxx11::basic_string<char>::_Alloc_hider", i64, %union.anon }
%"struct.std::__cxx11::basic_string<char>::_Alloc_hider" = type { ptr }
%union.anon = type { i64, [8 x i8] }
%"class.std::allocator.4" = type { i8 }
%"struct.nix::SQLiteStmt" = type { ptr, ptr, %"class.std::__cxx11::basic_string" }

@.str.22 = private unnamed_addr constant [26 x i8] c"finalizing statement '%s'\00", align 1

; Function Attrs: mustprogress nounwind uwtable
define void @_ZN3nix10SQLiteStmtD2Ev(ptr noundef nonnull align 8 dereferenceable(48) %0) unnamed_addr #2 align 2 personality ptr @__gxx_personality_v0 {
  %2 = alloca ptr, align 8
  %3 = alloca ptr, align 8
  %4 = alloca i32, align 4
  %5 = alloca %"class.std::__cxx11::basic_string", align 8
  %6 = alloca %"class.std::allocator.4", align 1
  store ptr %0, ptr %2, align 8
  %7 = load ptr, ptr %2, align 8
  %8 = getelementptr inbounds %"struct.nix::SQLiteStmt", ptr %7, i32 0, i32 1
  %9 = load ptr, ptr %8, align 8
  %10 = icmp ne ptr %9, null
  br i1 %10, label %11, label %43

11:                                               ; preds = %1
  %12 = getelementptr inbounds %"struct.nix::SQLiteStmt", ptr %7, i32 0, i32 1
  %13 = load ptr, ptr %12, align 8
  %14 = invoke i32 @sqlite3_finalize(ptr noundef %13)
          to label %15 unwind label %23

15:                                               ; preds = %11
  %16 = icmp ne i32 %14, 0
  br i1 %16, label %17, label %43

17:                                               ; preds = %15
  %18 = getelementptr inbounds %"struct.nix::SQLiteStmt", ptr %7, i32 0, i32 0
  %19 = load ptr, ptr %18, align 8
  call void @_ZNSaIcEC1Ev(ptr noundef nonnull align 1 dereferenceable(1) %6) #1
  invoke void @_ZNSt7__cxx1112basic_stringIcSt11char_traitsIcESaIcEEC2IS3_EEPKcRKS3_(ptr noundef nonnull align 8 dereferenceable(32) %5, ptr noundef @.str.22, ptr noundef nonnull align 1 dereferenceable(1) %6)
          to label %20 unwind label %27

20:                                               ; preds = %17
  %21 = getelementptr inbounds %"struct.nix::SQLiteStmt", ptr %7, i32 0, i32 2
  invoke void @_ZN3nix11SQLiteError6throw_IJNSt7__cxx1112basic_stringIcSt11char_traitsIcESaIcEEEEEEvP7sqlite3RKS7_DpRKT_(ptr noundef %19, ptr noundef nonnull align 8 dereferenceable(32) %5, ptr noundef nonnull align 8 dereferenceable(32) %21) #18
          to label %22 unwind label %31

22:                                               ; preds = %20
  unreachable

23:                                               ; preds = %11
  %24 = landingpad { ptr, i32 }
          catch ptr null
  %25 = extractvalue { ptr, i32 } %24, 0
  store ptr %25, ptr %3, align 8
  %26 = extractvalue { ptr, i32 } %24, 1
  store i32 %26, ptr %4, align 4
  br label %36

27:                                               ; preds = %17
  %28 = landingpad { ptr, i32 }
          catch ptr null
  %29 = extractvalue { ptr, i32 } %28, 0
  store ptr %29, ptr %3, align 8
  %30 = extractvalue { ptr, i32 } %28, 1
  store i32 %30, ptr %4, align 4
  br label %35

31:                                               ; preds = %20
  %32 = landingpad { ptr, i32 }
          catch ptr null
  %33 = extractvalue { ptr, i32 } %32, 0
  store ptr %33, ptr %3, align 8
  %34 = extractvalue { ptr, i32 } %32, 1
  store i32 %34, ptr %4, align 4
  call void @_ZNSt7__cxx1112basic_stringIcSt11char_traitsIcESaIcEED2Ev(ptr noundef nonnull align 8 dereferenceable(32) %5) #1
  br label %35

35:                                               ; preds = %31, %27
  call void @_ZNSaIcED1Ev(ptr noundef nonnull align 1 dereferenceable(1) %6) #1
  br label %36

36:                                               ; preds = %35, %23
  %37 = load ptr, ptr %3, align 8
  %38 = call ptr @__cxa_begin_catch(ptr %37) #1
  invoke void @_ZN3nix15ignoreExceptionENS_9VerbosityE(i32 noundef 0)
          to label %39 unwind label %44

39:                                               ; preds = %36
  invoke void @__cxa_end_catch()
          to label %40 unwind label %44

40:                                               ; preds = %39
  br label %41

41:                                               ; preds = %43, %40
  %42 = getelementptr inbounds %"struct.nix::SQLiteStmt", ptr %7, i32 0, i32 2
  call void @_ZNSt7__cxx1112basic_stringIcSt11char_traitsIcESaIcEED2Ev(ptr noundef nonnull align 8 dereferenceable(32) %42) #1
  ret void

43:                                               ; preds = %15, %1
  br label %41

44:                                               ; preds = %39, %36
  %45 = landingpad { ptr, i32 }
          catch ptr null
  %46 = extractvalue { ptr, i32 } %45, 0
  call void @__clang_call_terminate(ptr %46) #19
  unreachable
}