; Function Attrs: mustprogress nounwind uwtable
define void @_ZN3nix10SQLiteStmtD2Ev(ptr noundef nonnull align 8 dereferenceable(48) %0) unnamed_addr #4 align 2 personality ptr @__gxx_personality_v0 {
  %2 = alloca %"class.std::__cxx11::basic_string", align 8
  %3 = alloca %"class.std::allocator.4", align 1
  %4 = getelementptr inbounds i8, ptr %0, i64 8
  %5 = load ptr, ptr %4, align 8
  %.not = icmp eq ptr %5, null
  br i1 %.not, label %24, label %6

6:                                                ; preds = %1
  %7 = invoke i32 @sqlite3_finalize(ptr noundef nonnull %5)
          to label %8 unwind label %14

8:                                                ; preds = %6
  %.not3 = icmp eq i32 %7, 0
  br i1 %.not3, label %24, label %9

9:                                                ; preds = %8
  %10 = load ptr, ptr %0, align 8
  call void @_ZNSaIcEC1Ev(ptr noundef nonnull align 1 dereferenceable(1) %3) #22
  invoke void @_ZNSt7__cxx1112basic_stringIcSt11char_traitsIcESaIcEEC2IS3_EEPKcRKS3_(ptr noundef nonnull align 8 dereferenceable(32) %2, ptr noundef nonnull @.str.22, ptr noundef nonnull align 1 dereferenceable(1) %3)
          to label %11 unwind label %16

11:                                               ; preds = %9
  %12 = getelementptr inbounds i8, ptr %0, i64 16
  invoke void @_ZN3nix11SQLiteError6throw_IJNSt7__cxx1112basic_stringIcSt11char_traitsIcESaIcEEEEEEvP7sqlite3RKS7_DpRKT_(ptr noundef %10, ptr noundef nonnull align 8 dereferenceable(32) %2, ptr noundef nonnull align 8 dereferenceable(32) %12) #24
          to label %13 unwind label %18

13:                                               ; preds = %11
  unreachable

14:                                               ; preds = %6
  %15 = landingpad { ptr, i32 }
          catch ptr null
  br label %21

16:                                               ; preds = %9
  %17 = landingpad { ptr, i32 }
          catch ptr null
  br label %20

18:                                               ; preds = %11
  %19 = landingpad { ptr, i32 }
          catch ptr null
  call void @_ZNSt7__cxx1112basic_stringIcSt11char_traitsIcESaIcEED2Ev(ptr noundef nonnull align 8 dereferenceable(32) %2) #22
  br label %20

20:                                               ; preds = %18, %16
  %.pn = phi { ptr, i32 } [ %19, %18 ], [ %17, %16 ]
  call void @_ZNSaIcED1Ev(ptr noundef nonnull align 1 dereferenceable(1) %3) #22
  br label %21

21:                                               ; preds = %20, %14
  %.pn.pn = phi { ptr, i32 } [ %.pn, %20 ], [ %15, %14 ]
  %.1 = extractvalue { ptr, i32 } %.pn.pn, 0
  %22 = call ptr @__cxa_begin_catch(ptr %.1) #22
  invoke void @_ZN3nix15ignoreExceptionENS_9VerbosityE(i32 noundef 0)
          to label %23 unwind label %32

23:                                               ; preds = %21
  invoke void @__cxa_end_catch()
          to label %24 unwind label %32

24:                                               ; preds = %1, %8, %23
  %25 = getelementptr inbounds i8, ptr %0, i64 16
  %26 = load ptr, ptr %25, align 8
  %27 = getelementptr inbounds i8, ptr %0, i64 32
  %28 = icmp eq ptr %26, %27
  br i1 %28, label %_ZNKSt7__cxx1112basic_stringIcSt11char_traitsIcESaIcEE11_M_is_localEv.exit.thread.i.i, label %_ZNKSt7__cxx1112basic_stringIcSt11char_traitsIcESaIcEE11_M_is_localEv.exit.i.i

_ZNKSt7__cxx1112basic_stringIcSt11char_traitsIcESaIcEE11_M_is_localEv.exit.thread.i.i: ; preds = %24
  %29 = getelementptr inbounds i8, ptr %0, i64 24
  %30 = load i64, ptr %29, align 8
  %31 = icmp ult i64 %30, 16
  call void @llvm.assume(i1 %31)
  br label %_ZNSt7__cxx1112basic_stringIcSt11char_traitsIcESaIcEED2Ev.exit

_ZNKSt7__cxx1112basic_stringIcSt11char_traitsIcESaIcEE11_M_is_localEv.exit.i.i: ; preds = %24
  call void @_ZdlPv(ptr noundef %26) #23
  br label %_ZNSt7__cxx1112basic_stringIcSt11char_traitsIcESaIcEED2Ev.exit

_ZNSt7__cxx1112basic_stringIcSt11char_traitsIcESaIcEED2Ev.exit: ; preds = %_ZNKSt7__cxx1112basic_stringIcSt11char_traitsIcESaIcEE11_M_is_localEv.exit.thread.i.i, %_ZNKSt7__cxx1112basic_stringIcSt11char_traitsIcESaIcEE11_M_is_localEv.exit.i.i
  call void @_ZNSaIcED2Ev(ptr noundef nonnull align 1 dereferenceable(1) %25) #22
  ret void

32:                                               ; preds = %23, %21
  %33 = landingpad { ptr, i32 }
          catch ptr null
  %34 = extractvalue { ptr, i32 } %33, 0
  call void @__clang_call_terminate(ptr %34) #26
  unreachable
}